Certificate:
    Data:
        Version: 3 (0x2)
        Serial Number: 1 (0x1)
    Signature Algorithm: sha256WithRSAEncryption
        Issuer: C=US, ST=CA, L=SanFrancisco, O=Fort-Funston, OU=MyOrganizationalUnit, CN=Fort-Funston CA/name=EasyRSA/emailAddress=me@myhost.mydomain
        Validity
            Not Before: Apr 21 11:19:28 2017 GMT
            Not After : Apr 19 11:19:28 2027 GMT
        Subject: C=US, ST=CA, L=SanFrancisco, O=Fort-Funston, OU=MyOrganizationalUnit, CN=localhost/name=EasyRSA/emailAddress=me@myhost.mydomain
        Subject Public Key Info:
            Public Key Algorithm: rsaEncryption
                Public-Key: (2048 bit)
                Modulus:
                    00:99:d3:fc:40:74:ef:7b:29:4b:bc:9b:7d:0d:41:
                    23:ed:04:59:56:71:a8:20:b2:f5:d2:5f:00:aa:68:
                    a2:b8:6e:15:26:3a:64:ef:7d:a2:47:c9:a7:d2:81:
                    04:5f:7b:29:0d:3b:bc:1c:ac:d0:4b:9d:77:7b:c2:
                    99:c0:5a:9c:90:8c:03:30:b4:84:68:0e:63:7f:7b:
                    79:3b:5b:0c:28:35:b1:87:a3:2b:10:dc:c9:cf:c9:
                    f0:54:5b:c1:c7:d4:da:58:0f:db:2a:f8:13:47:d9:
                    a2:bf:7b:9c:ea:79:48:11:bb:6b:f7:6f:13:9c:2e:
                    8b:d0:c0:71:70:eb:ab:3d:0b:a6:45:37:04:5c:06:
                    ff:a5:c9:46:4b:51:25:a7:4a:d8:dd:4f:34:76:b0:
                    34:79:cb:fe:b8:5a:cc:d4:d9:44:2e:31:65:9f:71:
                    d2:a5:d8:c0:49:5d:e1:08:d0:69:d0:06:54:65:00:
                    55:b0:b3:92:8c:48:cd:d6:b5:83:0e:6f:fc:e0:42:
                    f1:58:e1:04:42:61:ec:e0:c4:4b:10:3f:9a:d7:1b:
                    75:5e:02:e2:c1:90:97:82:8b:16:8d:b3:3d:ff:ed:
                    63:fb:31:bd:f1:8e:ed:e7:3f:61:71:81:18:19:2b:
                    e7:b9:9f:ce:b2:96:bd:bb:cb:7b:87:83:e0:da:3a:
                    9d:3d
                Exponent: 65537 (0x10001)
        X509v3 extensions:
            X509v3 Basic Constraints: 
                CA:FALSE
            Netscape Cert Type: 
                SSL Server
            Netscape Comment: 
                Easy-RSA Generated Server Certificate
            X509v3 Subject Key Identifier: 
                1B:61:E8:94:7C:47:76:64:0C:D2:0E:A2:7A:31:D8:56:B4:F1:3B:8E
            X509v3 Authority Key Identifier: 
                keyid:DB:5F:1A:CC:63:7B:6D:ED:3D:51:01:EF:27:F8:3E:D1:3C:7B:85:21
                DirName:/C=US/ST=CA/L=SanFrancisco/O=Fort-Funston/OU=MyOrganizationalUnit/CN=Fort-Funston CA/name=EasyRSA/emailAddress=me@myhost.mydomain
                serial:C3:E7:27:A3:C8:F6:6F:60

            X509v3 Extended Key Usage: 
                TLS Web Server Authentication
            X509v3 Key Usage: 
                Digital Signature, Key Encipherment
            X509v3 Subject Alternative Name: 
                DNS:localhost
    Signature Algorithm: sha256WithRSAEncryption
         2e:5f:e8:3a:4d:9e:b5:60:1f:e3:88:bc:53:9e:ca:d1:b9:35:
         81:88:9d:27:73:db:72:cd:66:a2:49:3b:31:0f:ce:ee:61:18:
         cf:1c:65:03:f5:2b:c7:b1:02:2c:bf:64:21:8a:e0:69:a9:16:
         94:4c:66:aa:3b:a0:8a:9d:ed:3b:e8:42:d0:30:57:1c:19:d7:
         b4:3d:ea:75:fc:15:ba:0c:36:94:12:f2:63:bf:18:28:b8:f4:
         f6:f4:0f:bf:e7:42:82:53:1c:7a:5a:7d:6f:28:3d:bc:5f:b0:
         7a:f6:a0:c2:36:fd:74:71:dc:07:9c:1c:7e:ac:86:6d:89:54:
         34:a6:4e:9a:8e:8f:dc:c0:6c:ba:12:f2:fa:3a:0d:d7:44:14:
         90:b4:8b:bb:5d:c4:98:8c:7a:77:cd:7e:7d:56:3a:a7:15:81:
         48:a3:5a:e1:a1:d3:20:8f:74:5a:b6:ce:dc:1c:95:9e:4d:58:
         0a:58:63:24:50:67:3d:33:c5:5f:0e:ca:c8:6a:6a:3a:d9:8f:
         5a:b3:00:be:af:82:74:0f:0a:ac:92:42:02:6e:8b:f5:a0:d4:
         86:20:03:d2:d4:49:2b:f1:e5:97:b9:f5:91:b0:ee:cc:b2:b6:
         2b:25:27:02:75:d8:c8:12:0d:29:7f:cf:9a:9c:3e:3f:0a:59:
         49:b8:46:af
-----BEGIN CERTIFICATE-----
MIIFgjCCBGqgAwIBAgIBATANBgkqhkiG9w0BAQsFADCBtjELMAkGA1UEBhMCVVMx
CzAJBgNVBAgTAkNBMRUwEwYDVQQHEwxTYW5GcmFuY2lzY28xFTATBgNVBAoTDEZv
cnQtRnVuc3RvbjEdMBsGA1UECxMUTXlPcmdhbml6YXRpb25hbFVuaXQxGDAWBgNV
BAMTD0ZvcnQtRnVuc3RvbiBDQTEQMA4GA1UEKRMHRWFzeVJTQTEhMB8GCSqGSIb3
DQEJARYSbWVAbXlob3N0Lm15ZG9tYWluMB4XDTE3MDQyMTExMTkyOFoXDTI3MDQx
OTExMTkyOFowgbAxCzAJBgNVBAYTAlVTMQswCQYDVQQIEwJDQTEVMBMGA1UEBxMM
U2FuRnJhbmNpc2NvMRUwEwYDVQQKEwxGb3J0LUZ1bnN0b24xHTAbBgNVBAsTFE15
T3JnYW5pemF0aW9uYWxVbml0MRIwEAYDVQQDEwlsb2NhbGhvc3QxEDAOBgNVBCkT
B0Vhc3lSU0ExITAfBgkqhkiG9w0BCQEWEm1lQG15aG9zdC5teWRvbWFpbjCCASIw
DQYJKoZIhvcNAQEBBQADggEPADCCAQoCggEBAJnT/EB073spS7ybfQ1BI+0EWVZx
qCCy9dJfAKpoorhuFSY6ZO99okfJp9KBBF97KQ07vBys0Eudd3vCmcBanJCMAzC0
hGgOY397eTtbDCg1sYejKxDcyc/J8FRbwcfU2lgP2yr4E0fZor97nOp5SBG7a/dv
E5wui9DAcXDrqz0LpkU3BFwG/6XJRktRJadK2N1PNHawNHnL/rhazNTZRC4xZZ9x
0qXYwEld4QjQadAGVGUAVbCzkoxIzda1gw5v/OBC8VjhBEJh7ODESxA/mtcbdV4C
4sGQl4KLFo2zPf/tY/sxvfGO7ec/YXGBGBkr57mfzrKWvbvLe4eD4No6nT0CAwEA
AaOCAZ0wggGZMAkGA1UdEwQCMAAwEQYJYIZIAYb4QgEBBAQDAgZAMDQGCWCGSAGG
+EIBDQQnFiVFYXN5LVJTQSBHZW5lcmF0ZWQgU2VydmVyIENlcnRpZmljYXRlMB0G
A1UdDgQWBBQbYeiUfEd2ZAzSDqJ6MdhWtPE7jjCB6wYDVR0jBIHjMIHggBTbXxrM
Y3tt7T1RAe8n+D7RPHuFIaGBvKSBuTCBtjELMAkGA1UEBhMCVVMxCzAJBgNVBAgT
AkNBMRUwEwYDVQQHEwxTYW5GcmFuY2lzY28xFTATBgNVBAoTDEZvcnQtRnVuc3Rv
bjEdMBsGA1UECxMUTXlPcmdhbml6YXRpb25hbFVuaXQxGDAWBgNVBAMTD0ZvcnQt
RnVuc3RvbiBDQTEQMA4GA1UEKRMHRWFzeVJTQTEhMB8GCSqGSIb3DQEJARYSbWVA
bXlob3N0Lm15ZG9tYWluggkAw+cno8j2b2AwEwYDVR0lBAwwCgYIKwYBBQUHAwEw
CwYDVR0PBAQDAgWgMBQGA1UdEQQNMAuCCWxvY2FsaG9zdDANBgkqhkiG9w0BAQsF
AAOCAQEALl/oOk2etWAf44i8U57K0bk1gYidJ3Pbcs1mokk7MQ/O7mEYzxxlA/Ur
x7ECLL9kIYrgaakWlExmqjugip3tO+hC0DBXHBnXtD3qdfwVugw2lBLyY78YKLj0
9vQPv+dCglMcelp9byg9vF+wevagwjb9dHHcB5wcfqyGbYlUNKZOmo6P3MBsuhLy
+joN10QUkLSLu13EmIx6d81+fVY6pxWBSKNa4aHTII90WrbO3ByVnk1YClhjJFBn
PTPFXw7KyGpqOtmPWrMAvq+CdA8KrJJCAm6L9aDUhiAD0tRJK/Hll7n1kbDuzLK2
KyUnAnXYyBINKX/Pmpw+PwpZSbhGrw==
-----END CERTIFICATE-----
